target datalayout = "e-m:e-p270:32:32-p271:32:32-p272:64:64-i64:64-i128:128-f80:128-n8:16:32:64-S128"
target triple = "x86_64-pc-linux-gnu"

%struct.CFF_Builder_FuncsRec_ = type { ptr, ptr, ptr, ptr, ptr, ptr, ptr, ptr }
%struct.FT_BBox_ = type { i64, i64, i64, i64 }
%struct.FT_Vector_ = type { i64, i64 }
%struct.CFF_Builder_ = type { ptr, ptr, ptr, ptr, ptr, ptr, i64, i64, %struct.FT_Vector_, %struct.FT_Vector_, %struct.FT_BBox_, i8, i8, i8, i8, ptr, ptr, %struct.CFF_Builder_FuncsRec_ }
%struct.FT_Generic_ = type { ptr, ptr }
%struct.FT_FaceRec_ = type { i64, i64, i64, i64, i64, ptr, ptr, i32, ptr, i32, ptr, %struct.FT_Generic_, %struct.FT_BBox_, i16, i16, i16, i16, i16, i16, i16, i16, ptr, ptr, ptr, ptr, ptr, ptr, %struct.FT_ListRec_, %struct.FT_Generic_, ptr, ptr }
%struct.FT_ListRec_ = type { ptr, ptr }
%struct.FT_Matrix_ = type { i64, i64, i64, i64 }
%struct.FT_SizeRec_ = type { ptr, %struct.FT_Generic_, %struct.FT_Size_Metrics_, ptr }
%struct.FT_Size_Metrics_ = type { i16, i16, i64, i64, i64, i64, i64, i64 }
%struct.FT_Size_InternalRec_ = type { ptr, i32, %struct.FT_Size_Metrics_ }
%struct.CFF_BlendRec_ = type { i8, i8, ptr, i32, i32, ptr, i32, ptr }
%struct.CFF_FontRec_ = type { ptr, ptr, ptr, i64, i32, i32, i8, i8, i8, i32, i8, %struct.CFF_IndexRec_, %struct.CFF_IndexRec_, %struct.CFF_IndexRec_, %struct.CFF_EncodingRec_, %struct.CFF_CharsetRec_, %struct.CFF_IndexRec_, %struct.CFF_IndexRec_, %struct.CFF_IndexRec_, %struct.CFF_IndexRec_, ptr, ptr, i32, ptr, ptr, i64, %struct.CFF_SubFontRec_, i32, [256 x ptr], %struct.CFF_FDSelectRec_, ptr, ptr, ptr, ptr, ptr, ptr, %struct.FT_Generic_, %struct.CFF_VStoreRec_, ptr }
%struct.CFF_EncodingRec_ = type { i32, i64, i32, [256 x i16], [256 x i16] }
%struct.CFF_CharsetRec_ = type { i32, i64, ptr, ptr, i32, i32 }
%struct.CFF_IndexRec_ = type { ptr, i64, i32, i32, i8, i64, i64, ptr, ptr }
%struct.CFF_SubFontRec_ = type { %struct.CFF_FontRecDictRec_, %struct.CFF_PrivateRec_, %struct.CFF_BlendRec_, i32, ptr, ptr, ptr, i32, i32, %struct.CFF_IndexRec_, ptr, i32 }
%struct.CFF_FontRecDictRec_ = type { i32, i32, i32, i32, i32, i32, i8, i64, i64, i64, i32, i32, %struct.FT_Matrix_, i8, i64, %struct.FT_Vector_, i64, %struct.FT_BBox_, i64, i64, i64, i64, i64, i64, i64, i32, i32, i32, i64, i64, i64, i64, i64, i64, i64, i64, i32, i16, i16, i64, i32 }
%struct.CFF_PrivateRec_ = type { i8, i8, i8, i8, [14 x i64], [10 x i64], [14 x i64], [10 x i64], i64, i64, i64, i64, i64, i8, i8, [13 x i64], [13 x i64], i8, i64, i32, i32, i64, i64, i64, i64, i64, i32, ptr }
%struct.CFF_FDSelectRec_ = type { i8, i32, ptr, i32, i32, i32, i8 }
%struct.CFF_VStoreRec_ = type { i32, ptr, i16, i32, ptr }
%struct.TT_FaceRec_ = type { %struct.FT_FaceRec_, %struct.TTC_HeaderRec_, i64, i16, ptr, %struct.TT_Header_, %struct.TT_HoriHeader_, %struct.TT_MaxProfile_, i8, %struct.TT_VertHeader_, i16, %struct.TT_NameTableRec_, %struct.TT_OS2_, %struct.TT_Postscript_, ptr, i64, ptr, ptr, ptr, ptr, ptr, ptr, ptr, ptr, ptr, ptr, ptr, ptr, %struct.TT_Gasp_, %struct.TT_PCLT_, i64, ptr, %struct.TT_Post_NamesRec_, %struct.FT_Palette_Data_, i16, ptr, i8, %struct.FT_Color_, i64, ptr, i64, ptr, i64, ptr, ptr, %struct.FT_Generic_, ptr, i64, i64, i8, i8, ptr, i32, ptr, i32, i32, ptr, i64, i64, i64, ptr, ptr, i64, i32, i64, ptr, ptr, i64, i32, i32, ptr, ptr, i64, i32, i32, i32, %struct.TT_BDFRec_, i64, i64, i64, i64, ptr, ptr, ptr }
%struct.TTC_HeaderRec_ = type { i64, i64, i64, ptr }
%struct.TT_Header_ = type { i64, i64, i64, i64, i16, i16, [2 x i64], [2 x i64], i16, i16, i16, i16, i16, i16, i16, i16, i16 }
%struct.TT_HoriHeader_ = type { i64, i16, i16, i16, i16, i16, i16, i16, i16, i16, i16, [4 x i16], i16, i16, ptr, ptr }
%struct.TT_MaxProfile_ = type { i64, i16, i16, i16, i16, i16, i16, i16, i16, i16, i16, i16, i16, i16, i16 }
%struct.TT_VertHeader_ = type { i64, i16, i16, i16, i16, i16, i16, i16, i16, i16, i16, [4 x i16], i16, i16, ptr, ptr }
%struct.TT_NameTableRec_ = type { i16, i32, i32, ptr, i32, ptr, ptr }
%struct.TT_OS2_ = type { i16, i16, i16, i16, i16, i16, i16, i16, i16, i16, i16, i16, i16, i16, i16, i16, [10 x i8], i64, i64, i64, i64, [4 x i8], i16, i16, i16, i16, i16, i16, i16, i16, i64, i64, i16, i16, i16, i16, i16, i16, i16 }
%struct.TT_Postscript_ = type { i64, i64, i16, i16, i64, i64, i64, i64, i64 }
%struct.TT_Gasp_ = type { i16, i16, ptr }
%struct.TT_PCLT_ = type { i64, i64, i16, i16, i16, i16, i16, i16, [16 x i8], [8 x i8], [6 x i8], i8, i8, i8, i8 }
%struct.TT_Post_NamesRec_ = type { i8, i16, i16, ptr, ptr }
%struct.FT_Palette_Data_ = type { i16, ptr, ptr, i16, ptr }
%struct.FT_Color_ = type { i8, i8, i8, i8 }
%struct.TT_BDFRec_ = type { ptr, ptr, ptr, i64, i32, i8 }
%struct.CFF_InternalRec_ = type { ptr, [256 x ptr] }
%struct.CFF_Decoder_ = type { %struct.CFF_Builder_, ptr, [49 x i64], ptr, [17 x %struct.CFF_Decoder_Zone_], ptr, i32, i32, [7 x %struct.FT_Vector_], i64, i64, i8, i8, i32, [32 x i64], i32, i32, i32, i32, ptr, ptr, ptr, i32, i32, i8, ptr, ptr, ptr }
%struct.CFF_Decoder_Zone_ = type { ptr, ptr, ptr }
%struct.FT_Service_CFFLoadRec_ = type { ptr, ptr, ptr, ptr, ptr }

; Function Attrs: nounwind uwtable
define internal i32 @cff_compute_bias(i32 noundef %0, i32 noundef %1) #0 {
  %3 = alloca i32, align 4
  %4 = alloca i32, align 4
  %5 = alloca i32, align 4
  store i32 %0, ptr %3, align 4
  store i32 %1, ptr %4, align 4
  %6 = load i32, ptr %3, align 4
  %7 = icmp eq i32 %6, 1
  br i1 %7, label %8, label %9

8:                                                ; preds = %2
  store i32 0, ptr %5, align 4
  br label %20

9:                                                ; preds = %2
  %10 = load i32, ptr %4, align 4
  %11 = icmp ult i32 %10, 1240
  br i1 %11, label %12, label %13

12:                                               ; preds = %9
  store i32 107, ptr %5, align 4
  br label %19

13:                                               ; preds = %9
  %14 = load i32, ptr %4, align 4
  %15 = icmp ult i32 %14, 33900
  br i1 %15, label %16, label %17

16:                                               ; preds = %13
  store i32 1131, ptr %5, align 4
  br label %18

17:                                               ; preds = %13
  store i32 32768, ptr %5, align 4
  br label %18

18:                                               ; preds = %17, %16
  br label %19

19:                                               ; preds = %18, %12
  br label %20

20:                                               ; preds = %19, %8
  %21 = load i32, ptr %5, align 4
  ret i32 %21
}

; Function Attrs: nounwind uwtable
define internal i32 @cff_decoder_prepare(ptr noundef %0, ptr noundef %1, i32 noundef %2) #0 {
  %4 = alloca ptr, align 8
  %5 = alloca ptr, align 8
  %6 = alloca i32, align 4
  %7 = alloca ptr, align 8
  %8 = alloca ptr, align 8
  %9 = alloca ptr, align 8
  %10 = alloca i32, align 4
  %11 = alloca ptr, align 8
  %12 = alloca i8, align 1
  %13 = alloca ptr, align 8
  %14 = alloca ptr, align 8
  store ptr %0, ptr %4, align 8
  store ptr %1, ptr %5, align 8
  store i32 %2, ptr %6, align 4
  %15 = load ptr, ptr %4, align 8
  %16 = getelementptr inbounds %struct.CFF_Decoder_, ptr %15, i32 0, i32 0
  store ptr %16, ptr %7, align 8
  %17 = load ptr, ptr %7, align 8
  %18 = getelementptr inbounds %struct.CFF_Builder_, ptr %17, i32 0, i32 1
  %19 = load ptr, ptr %18, align 8
  %20 = getelementptr inbounds %struct.TT_FaceRec_, ptr %19, i32 0, i32 45
  %21 = getelementptr inbounds %struct.FT_Generic_, ptr %20, i32 0, i32 0
  %22 = load ptr, ptr %21, align 8
  store ptr %22, ptr %8, align 8
  %23 = load ptr, ptr %8, align 8
  %24 = getelementptr inbounds %struct.CFF_FontRec_, ptr %23, i32 0, i32 26
  store ptr %24, ptr %9, align 8
  store i32 0, ptr %10, align 4
  %25 = load ptr, ptr %8, align 8
  %26 = getelementptr inbounds %struct.CFF_FontRec_, ptr %25, i32 0, i32 32
  %27 = load ptr, ptr %26, align 8
  store ptr %27, ptr %11, align 8
  %28 = load ptr, ptr %8, align 8
  %29 = getelementptr inbounds %struct.CFF_FontRec_, ptr %28, i32 0, i32 27
  %30 = load i32, ptr %29, align 8
  %31 = icmp ne i32 %30, 0
  br i1 %31, label %32, label %81

32:                                               ; preds = %3
  %33 = load ptr, ptr %11, align 8
  %34 = getelementptr inbounds %struct.FT_Service_CFFLoadRec_, ptr %33, i32 0, i32 2
  %35 = load ptr, ptr %34, align 8
  %36 = load ptr, ptr %8, align 8
  %37 = getelementptr inbounds %struct.CFF_FontRec_, ptr %36, i32 0, i32 29
  %38 = load i32, ptr %6, align 4
  %39 = call zeroext i8 %35(ptr noundef %37, i32 noundef %38)
  store i8 %39, ptr %12, align 1
  %40 = load i8, ptr %12, align 1
  %41 = zext i8 %40 to i32
  %42 = load ptr, ptr %8, align 8
  %43 = getelementptr inbounds %struct.CFF_FontRec_, ptr %42, i32 0, i32 27
  %44 = load i32, ptr %43, align 8
  %45 = icmp uge i32 %41, %44
  br i1 %45, label %46, label %49

46:                                               ; preds = %32
  br label %47

47:                                               ; preds = %46
  br label %48

48:                                               ; preds = %47
  store i32 3, ptr %10, align 4
  br label %121

49:                                               ; preds = %32
  br label %50

50:                                               ; preds = %49
  br label %51

51:                                               ; preds = %50
  %52 = load ptr, ptr %8, align 8
  %53 = getelementptr inbounds %struct.CFF_FontRec_, ptr %52, i32 0, i32 28
  %54 = load i8, ptr %12, align 1
  %55 = zext i8 %54 to i64
  %56 = getelementptr inbounds [256 x ptr], ptr %53, i64 0, i64 %55
  %57 = load ptr, ptr %56, align 8
  store ptr %57, ptr %9, align 8
  %58 = load ptr, ptr %7, align 8
  %59 = getelementptr inbounds %struct.CFF_Builder_, ptr %58, i32 0, i32 15
  %60 = load ptr, ptr %59, align 8
  %61 = icmp ne ptr %60, null
  br i1 %61, label %62, label %80

62:                                               ; preds = %51
  %63 = load ptr, ptr %5, align 8
  %64 = icmp ne ptr %63, null
  br i1 %64, label %65, label %80

65:                                               ; preds = %62
  %66 = load ptr, ptr %5, align 8
  store ptr %66, ptr %13, align 8
  %67 = load ptr, ptr %13, align 8
  %68 = getelementptr inbounds %struct.FT_SizeRec_, ptr %67, i32 0, i32 3
  %69 = load ptr, ptr %68, align 8
  %70 = getelementptr inbounds %struct.FT_Size_InternalRec_, ptr %69, i32 0, i32 0
  %71 = load ptr, ptr %70, align 8
  store ptr %71, ptr %14, align 8
  %72 = load ptr, ptr %14, align 8
  %73 = getelementptr inbounds %struct.CFF_InternalRec_, ptr %72, i32 0, i32 1
  %74 = load i8, ptr %12, align 1
  %75 = zext i8 %74 to i64
  %76 = getelementptr inbounds [256 x ptr], ptr %73, i64 0, i64 %75
  %77 = load ptr, ptr %76, align 8
  %78 = load ptr, ptr %7, align 8
  %79 = getelementptr inbounds %struct.CFF_Builder_, ptr %78, i32 0, i32 16
  store ptr %77, ptr %79, align 8
  br label %80

80:                                               ; preds = %65, %62, %51
  br label %81

81:                                               ; preds = %80, %3
  %82 = load ptr, ptr %9, align 8
  %83 = getelementptr inbounds %struct.CFF_SubFontRec_, ptr %82, i32 0, i32 9
  %84 = getelementptr inbounds %struct.CFF_IndexRec_, ptr %83, i32 0, i32 3
  %85 = load i32, ptr %84, align 4
  %86 = load ptr, ptr %4, align 8
  %87 = getelementptr inbounds %struct.CFF_Decoder_, ptr %86, i32 0, i32 15
  store i32 %85, ptr %87, align 8
  %88 = load ptr, ptr %9, align 8
  %89 = getelementptr inbounds %struct.CFF_SubFontRec_, ptr %88, i32 0, i32 10
  %90 = load ptr, ptr %89, align 8
  %91 = load ptr, ptr %4, align 8
  %92 = getelementptr inbounds %struct.CFF_Decoder_, ptr %91, i32 0, i32 19
  store ptr %90, ptr %92, align 8
  %93 = load ptr, ptr %4, align 8
  %94 = getelementptr inbounds %struct.CFF_Decoder_, ptr %93, i32 0, i32 1
  %95 = load ptr, ptr %94, align 8
  %96 = getelementptr inbounds %struct.CFF_FontRec_, ptr %95, i32 0, i32 26
  %97 = getelementptr inbounds %struct.CFF_SubFontRec_, ptr %96, i32 0, i32 0
  %98 = getelementptr inbounds %struct.CFF_FontRecDictRec_, ptr %97, i32 0, i32 11
  %99 = load i32, ptr %98, align 4
  %100 = load ptr, ptr %4, align 8
  %101 = getelementptr inbounds %struct.CFF_Decoder_, ptr %100, i32 0, i32 15
  %102 = load i32, ptr %101, align 8
  %103 = call i32 @cff_compute_bias(i32 noundef %99, i32 noundef %102)
  %104 = load ptr, ptr %4, align 8
  %105 = getelementptr inbounds %struct.CFF_Decoder_, ptr %104, i32 0, i32 17
  store i32 %103, ptr %105, align 8
  %106 = load ptr, ptr %9, align 8
  %107 = getelementptr inbounds %struct.CFF_SubFontRec_, ptr %106, i32 0, i32 1
  %108 = getelementptr inbounds %struct.CFF_PrivateRec_, ptr %107, i32 0, i32 24
  %109 = load i64, ptr %108, align 8
  %110 = load ptr, ptr %4, align 8
  %111 = getelementptr inbounds %struct.CFF_Decoder_, ptr %110, i32 0, i32 9
  store i64 %109, ptr %111, align 8
  %112 = load ptr, ptr %9, align 8
  %113 = getelementptr inbounds %struct.CFF_SubFontRec_, ptr %112, i32 0, i32 1
  %114 = getelementptr inbounds %struct.CFF_PrivateRec_, ptr %113, i32 0, i32 25
  %115 = load i64, ptr %114, align 8
  %116 = load ptr, ptr %4, align 8
  %117 = getelementptr inbounds %struct.CFF_Decoder_, ptr %116, i32 0, i32 10
  store i64 %115, ptr %117, align 8
  %118 = load ptr, ptr %9, align 8
  %119 = load ptr, ptr %4, align 8
  %120 = getelementptr inbounds %struct.CFF_Decoder_, ptr %119, i32 0, i32 25
  store ptr %118, ptr %120, align 8
  br label %121

121:                                              ; preds = %81, %48
  %122 = load i32, ptr %10, align 4
  ret i32 %122
}