; Function Attrs: nounwind uwtable
define internal range(i32 0, 4) i32 @cff_decoder_prepare(ptr noundef captures(none) %0, ptr noundef readonly %1, i32 noundef %2) #0 {
  %4 = getelementptr inbounds nuw i8, ptr %0, i64 8
  %5 = load ptr, ptr %4, align 8
  %6 = getelementptr inbounds nuw i8, ptr %5, i64 1168
  %7 = load ptr, ptr %6, align 8
  %8 = getelementptr inbounds nuw i8, ptr %7, i64 1640
  %9 = getelementptr inbounds nuw i8, ptr %7, i64 2864
  %10 = load i32, ptr %9, align 8
  %.not = icmp eq i32 %10, 0
  br i1 %.not, label %37, label %11

11:                                               ; preds = %3
  %12 = getelementptr inbounds nuw i8, ptr %7, i64 4968
  %13 = load ptr, ptr %12, align 8
  %14 = getelementptr inbounds nuw i8, ptr %13, i64 16
  %15 = load ptr, ptr %14, align 8
  %16 = getelementptr inbounds nuw i8, ptr %7, i64 4920
  %17 = tail call zeroext i8 %15(ptr noundef nonnull %16, i32 noundef %2) #20
  %18 = zext i8 %17 to i32
  %19 = load i32, ptr %9, align 8
  %.not35 = icmp ugt i32 %19, %18
  br i1 %.not35, label %20, label %61

20:                                               ; preds = %11
  %21 = getelementptr inbounds nuw i8, ptr %7, i64 2872
  %22 = zext i8 %17 to i64
  %23 = getelementptr inbounds nuw [256 x ptr], ptr %21, i64 0, i64 %22
  %24 = load ptr, ptr %23, align 8
  %25 = getelementptr inbounds nuw i8, ptr %0, i64 136
  %26 = load ptr, ptr %25, align 8
  %27 = icmp ne ptr %26, null
  %28 = icmp ne ptr %1, null
  %or.cond = and i1 %28, %27
  br i1 %or.cond, label %29, label %37

29:                                               ; preds = %20
  %30 = getelementptr inbounds nuw i8, ptr %1, i64 80
  %31 = load ptr, ptr %30, align 8
  %32 = load ptr, ptr %31, align 8
  %33 = getelementptr inbounds nuw i8, ptr %32, i64 8
  %34 = getelementptr inbounds nuw [256 x ptr], ptr %33, i64 0, i64 %22
  %35 = load ptr, ptr %34, align 8
  %36 = getelementptr inbounds nuw i8, ptr %0, i64 144
  store ptr %35, ptr %36, align 8
  br label %37

37:                                               ; preds = %20, %29, %3
  %.0 = phi ptr [ %24, %29 ], [ %24, %20 ], [ %8, %3 ]
  %38 = getelementptr inbounds nuw i8, ptr %.0, i64 1164
  %39 = load i32, ptr %38, align 4
  %40 = getelementptr inbounds nuw i8, ptr %0, i64 1440
  store i32 %39, ptr %40, align 8
  %41 = getelementptr inbounds nuw i8, ptr %.0, i64 1208
  %42 = load ptr, ptr %41, align 8
  %43 = getelementptr inbounds nuw i8, ptr %0, i64 1456
  store ptr %42, ptr %43, align 8
  %44 = getelementptr inbounds nuw i8, ptr %0, i64 216
  %45 = load ptr, ptr %44, align 8
  %46 = getelementptr inbounds nuw i8, ptr %45, i64 1700
  %47 = load i32, ptr %46, align 4
  %48 = icmp eq i32 %47, 1
  br i1 %48, label %cff_compute_bias.exit, label %49

49:                                               ; preds = %37
  %50 = icmp ult i32 %39, 1240
  br i1 %50, label %cff_compute_bias.exit, label %51

51:                                               ; preds = %49
  %52 = icmp ult i32 %39, 33900
  %..i = select i1 %52, i32 1131, i32 32768
  br label %cff_compute_bias.exit

cff_compute_bias.exit:                            ; preds = %37, %49, %51
  %.0.i = phi i32 [ 0, %37 ], [ 107, %49 ], [ %..i, %51 ]
  %53 = getelementptr inbounds nuw i8, ptr %0, i64 1448
  store i32 %.0.i, ptr %53, align 8
  %54 = getelementptr inbounds nuw i8, ptr %.0, i64 1024
  %55 = load i64, ptr %54, align 8
  %56 = getelementptr inbounds nuw i8, ptr %0, i64 1160
  store i64 %55, ptr %56, align 8
  %57 = getelementptr inbounds nuw i8, ptr %.0, i64 1032
  %58 = load i64, ptr %57, align 8
  %59 = getelementptr inbounds nuw i8, ptr %0, i64 1168
  store i64 %58, ptr %59, align 8
  %60 = getelementptr inbounds nuw i8, ptr %0, i64 1496
  store ptr %.0, ptr %60, align 8
  br label %61

61:                                               ; preds = %11, %cff_compute_bias.exit
  %.033 = phi i32 [ 0, %cff_compute_bias.exit ], [ 3, %11 ]
  ret i32 %.033
}